target datalayout = "e-m:e-p270:32:32-p271:32:32-p272:64:64-i64:64-i128:128-f80:128-n8:16:32:64-S128"
target triple = "x86_64-pc-linux-gnu"

%struct._object = type { %union.anon, ptr }
%union.anon = type { i64 }
%struct._longobject = type { %struct._object, %struct._PyLongValue }
%struct._PyLongValue = type { i64, [1 x i32] }
%struct.PyCellObject = type { %struct._object, ptr }
%struct.anon = type { i32, i32 }

@_Py_NotImplementedStruct = external global %struct._object, align 8
@_Py_TrueStruct = external global %struct._longobject, align 8
@_Py_FalseStruct = external global %struct._longobject, align 8

; Function Attrs: alwaysinline nounwind uwtable
define internal void @Py_INCREF(ptr noundef %0) #4 {
  %2 = alloca ptr, align 8
  %3 = alloca i32, align 4
  %4 = alloca i32, align 4
  store ptr %0, ptr %2, align 8, !tbaa !4
  call void @llvm.lifetime.start.p0(i64 4, ptr %3) #6
  %5 = load ptr, ptr %2, align 8, !tbaa !4
  %6 = getelementptr inbounds nuw %struct._object, ptr %5, i32 0, i32 0
  %7 = getelementptr inbounds nuw %struct.anon, ptr %6, i32 0, i32 0
  %8 = load i32, ptr %7, align 8, !tbaa !109
  store i32 %8, ptr %3, align 4, !tbaa !107
  %9 = load i32, ptr %3, align 4, !tbaa !107
  %10 = icmp slt i32 %9, 0
  br i1 %10, label %11, label %12

11:                                               ; preds = %1
  store i32 1, ptr %4, align 4
  br label %18

12:                                               ; preds = %1
  %13 = load i32, ptr %3, align 4, !tbaa !107
  %14 = add i32 %13, 1
  %15 = load ptr, ptr %2, align 8, !tbaa !4
  %16 = getelementptr inbounds nuw %struct._object, ptr %15, i32 0, i32 0
  %17 = getelementptr inbounds nuw %struct.anon, ptr %16, i32 0, i32 0
  store i32 %14, ptr %17, align 8, !tbaa !109
  store i32 0, ptr %4, align 4
  br label %18

18:                                               ; preds = %12, %11
  call void @llvm.lifetime.end.p0(i64 4, ptr %3) #6
  %19 = load i32, ptr %4, align 4
  switch i32 %19, label %21 [
    i32 0, label %20
    i32 1, label %20
  ]

20:                                               ; preds = %18, %18
  ret void

21:                                               ; preds = %18
  unreachable
}

; Function Attrs: alwaysinline nounwind uwtable
define internal i32 @_Py_IsImmortal(ptr noundef %0) #4 {
  %2 = alloca ptr, align 8
  store ptr %0, ptr %2, align 8, !tbaa !4
  %3 = load ptr, ptr %2, align 8, !tbaa !4
  %4 = getelementptr inbounds nuw %struct._object, ptr %3, i32 0, i32 0
  %5 = getelementptr inbounds nuw %struct.anon, ptr %4, i32 0, i32 0
  %6 = load i32, ptr %5, align 8, !tbaa !109
  %7 = icmp slt i32 %6, 0
  %8 = zext i1 %7 to i32
  ret i32 %8
}

; Function Attrs: inlinehint nounwind uwtable
define internal void @Py_XINCREF(ptr noundef %0) #3 {
  %2 = alloca ptr, align 8
  store ptr %0, ptr %2, align 8, !tbaa !4
  %3 = load ptr, ptr %2, align 8, !tbaa !4
  %4 = icmp ne ptr %3, null
  br i1 %4, label %5, label %7

5:                                                ; preds = %1
  %6 = load ptr, ptr %2, align 8, !tbaa !4
  call void @Py_INCREF(ptr noundef %6)
  br label %7

7:                                                ; preds = %5, %1
  ret void
}

; Function Attrs: alwaysinline nounwind uwtable
define internal void @Py_DECREF(ptr noundef %0) #4 {
  %2 = alloca ptr, align 8
  store ptr %0, ptr %2, align 8, !tbaa !4
  %3 = load ptr, ptr %2, align 8, !tbaa !4
  %4 = call i32 @_Py_IsImmortal(ptr noundef %3)
  %5 = icmp ne i32 %4, 0
  br i1 %5, label %6, label %7

6:                                                ; preds = %1
  br label %16

7:                                                ; preds = %1
  %8 = load ptr, ptr %2, align 8, !tbaa !4
  %9 = getelementptr inbounds nuw %struct._object, ptr %8, i32 0, i32 0
  %10 = getelementptr inbounds nuw %struct.anon, ptr %9, i32 0, i32 0
  %11 = load i32, ptr %10, align 8, !tbaa !109
  %12 = add i32 %11, -1
  store i32 %12, ptr %10, align 8, !tbaa !109
  %13 = icmp eq i32 %12, 0
  br i1 %13, label %14, label %16

14:                                               ; preds = %7
  %15 = load ptr, ptr %2, align 8, !tbaa !4
  call void @_Py_Dealloc(ptr noundef %15)
  br label %16

16:                                               ; preds = %6, %14, %7
  ret void
}

; Function Attrs: inlinehint nounwind uwtable
define internal ptr @_Py_XNewRef(ptr noundef %0) #3 {
  %2 = alloca ptr, align 8
  store ptr %0, ptr %2, align 8, !tbaa !4
  %3 = load ptr, ptr %2, align 8, !tbaa !4
  call void @Py_XINCREF(ptr noundef %3)
  %4 = load ptr, ptr %2, align 8, !tbaa !4
  ret ptr %4
}

; Function Attrs: inlinehint nounwind uwtable
define internal ptr @_Py_TYPE(ptr noundef %0) #3 {
  %2 = alloca ptr, align 8
  store ptr %0, ptr %2, align 8, !tbaa !4
  %3 = load ptr, ptr %2, align 8, !tbaa !4
  %4 = getelementptr inbounds nuw %struct._object, ptr %3, i32 0, i32 1
  %5 = load ptr, ptr %4, align 8, !tbaa !113
  ret ptr %5
}

; Function Attrs: inlinehint nounwind uwtable
define internal void @Py_XDECREF(ptr noundef %0) #3 {
  %2 = alloca ptr, align 8
  store ptr %0, ptr %2, align 8, !tbaa !4
  %3 = load ptr, ptr %2, align 8, !tbaa !4
  %4 = icmp ne ptr %3, null
  br i1 %4, label %5, label %7

5:                                                ; preds = %1
  %6 = load ptr, ptr %2, align 8, !tbaa !4
  call void @Py_DECREF(ptr noundef %6)
  br label %7

7:                                                ; preds = %5, %1
  ret void
}

; Function Attrs: nounwind uwtable
define internal ptr @cell_compare_impl(ptr noundef %0, ptr noundef %1, i32 noundef %2) #0 {
  %4 = alloca ptr, align 8
  %5 = alloca ptr, align 8
  %6 = alloca ptr, align 8
  %7 = alloca i32, align 4
  store ptr %0, ptr %5, align 8, !tbaa !4
  store ptr %1, ptr %6, align 8, !tbaa !4
  store i32 %2, ptr %7, align 4, !tbaa !107
  %8 = load ptr, ptr %5, align 8, !tbaa !4
  %9 = icmp ne ptr %8, null
  br i1 %9, label %10, label %18

10:                                               ; preds = %3
  %11 = load ptr, ptr %6, align 8, !tbaa !4
  %12 = icmp ne ptr %11, null
  br i1 %12, label %13, label %18

13:                                               ; preds = %10
  %14 = load ptr, ptr %5, align 8, !tbaa !4
  %15 = load ptr, ptr %6, align 8, !tbaa !4
  %16 = load i32, ptr %7, align 4, !tbaa !107
  %17 = call ptr @PyObject_RichCompare(ptr noundef %14, ptr noundef %15, i32 noundef %16)
  store ptr %17, ptr %4, align 8
  br label %83

18:                                               ; preds = %10, %3
  br label %19

19:                                               ; preds = %18
  %20 = load i32, ptr %7, align 4, !tbaa !107
  switch i32 %20, label %81 [
    i32 2, label %21
    i32 3, label %31
    i32 0, label %41
    i32 4, label %51
    i32 1, label %61
    i32 5, label %71
  ]

21:                                               ; preds = %19
  %22 = load ptr, ptr %6, align 8, !tbaa !4
  %23 = icmp eq ptr %22, null
  %24 = zext i1 %23 to i32
  %25 = load ptr, ptr %5, align 8, !tbaa !4
  %26 = icmp eq ptr %25, null
  %27 = zext i1 %26 to i32
  %28 = icmp eq i32 %24, %27
  br i1 %28, label %29, label %30

29:                                               ; preds = %21
  store ptr @_Py_TrueStruct, ptr %4, align 8
  br label %83

30:                                               ; preds = %21
  store ptr @_Py_FalseStruct, ptr %4, align 8
  br label %83

31:                                               ; preds = %19
  %32 = load ptr, ptr %6, align 8, !tbaa !4
  %33 = icmp eq ptr %32, null
  %34 = zext i1 %33 to i32
  %35 = load ptr, ptr %5, align 8, !tbaa !4
  %36 = icmp eq ptr %35, null
  %37 = zext i1 %36 to i32
  %38 = icmp ne i32 %34, %37
  br i1 %38, label %39, label %40

39:                                               ; preds = %31
  store ptr @_Py_TrueStruct, ptr %4, align 8
  br label %83

40:                                               ; preds = %31
  store ptr @_Py_FalseStruct, ptr %4, align 8
  br label %83

41:                                               ; preds = %19
  %42 = load ptr, ptr %6, align 8, !tbaa !4
  %43 = icmp eq ptr %42, null
  %44 = zext i1 %43 to i32
  %45 = load ptr, ptr %5, align 8, !tbaa !4
  %46 = icmp eq ptr %45, null
  %47 = zext i1 %46 to i32
  %48 = icmp slt i32 %44, %47
  br i1 %48, label %49, label %50

49:                                               ; preds = %41
  store ptr @_Py_TrueStruct, ptr %4, align 8
  br label %83

50:                                               ; preds = %41
  store ptr @_Py_FalseStruct, ptr %4, align 8
  br label %83

51:                                               ; preds = %19
  %52 = load ptr, ptr %6, align 8, !tbaa !4
  %53 = icmp eq ptr %52, null
  %54 = zext i1 %53 to i32
  %55 = load ptr, ptr %5, align 8, !tbaa !4
  %56 = icmp eq ptr %55, null
  %57 = zext i1 %56 to i32
  %58 = icmp sgt i32 %54, %57
  br i1 %58, label %59, label %60

59:                                               ; preds = %51
  store ptr @_Py_TrueStruct, ptr %4, align 8
  br label %83

60:                                               ; preds = %51
  store ptr @_Py_FalseStruct, ptr %4, align 8
  br label %83

61:                                               ; preds = %19
  %62 = load ptr, ptr %6, align 8, !tbaa !4
  %63 = icmp eq ptr %62, null
  %64 = zext i1 %63 to i32
  %65 = load ptr, ptr %5, align 8, !tbaa !4
  %66 = icmp eq ptr %65, null
  %67 = zext i1 %66 to i32
  %68 = icmp sle i32 %64, %67
  br i1 %68, label %69, label %70

69:                                               ; preds = %61
  store ptr @_Py_TrueStruct, ptr %4, align 8
  br label %83

70:                                               ; preds = %61
  store ptr @_Py_FalseStruct, ptr %4, align 8
  br label %83

71:                                               ; preds = %19
  %72 = load ptr, ptr %6, align 8, !tbaa !4
  %73 = icmp eq ptr %72, null
  %74 = zext i1 %73 to i32
  %75 = load ptr, ptr %5, align 8, !tbaa !4
  %76 = icmp eq ptr %75, null
  %77 = zext i1 %76 to i32
  %78 = icmp sge i32 %74, %77
  br i1 %78, label %79, label %80

79:                                               ; preds = %71
  store ptr @_Py_TrueStruct, ptr %4, align 8
  br label %83

80:                                               ; preds = %71
  store ptr @_Py_FalseStruct, ptr %4, align 8
  br label %83

81:                                               ; preds = %19
  unreachable

82:                                               ; No predecessors!
  br label %83

83:                                               ; preds = %13, %29, %30, %39, %40, %49, %50, %59, %60, %69, %70, %79, %80, %82
  %84 = load ptr, ptr %4, align 8
  ret ptr %84
}

; Function Attrs: inlinehint nounwind uwtable
define internal ptr @PyCell_GetRef(ptr noundef %0) #3 {
  %2 = alloca ptr, align 8
  %3 = alloca ptr, align 8
  store ptr %0, ptr %2, align 8, !tbaa !9
  call void @llvm.lifetime.start.p0(i64 8, ptr %3) #6
  %4 = load ptr, ptr %2, align 8, !tbaa !9
  %5 = getelementptr inbounds nuw %struct.PyCellObject, ptr %4, i32 0, i32 1
  %6 = load ptr, ptr %5, align 8, !tbaa !10
  %7 = call ptr @_Py_XNewRef(ptr noundef %6)
  store ptr %7, ptr %3, align 8, !tbaa !4
  %8 = load ptr, ptr %3, align 8, !tbaa !4
  call void @llvm.lifetime.end.p0(i64 8, ptr %3) #6
  ret ptr %8
}

; Function Attrs: inlinehint nounwind uwtable
define internal i32 @Py_IS_TYPE(ptr noundef %0, ptr noundef %1) #3 {
  %3 = alloca ptr, align 8
  %4 = alloca ptr, align 8
  store ptr %0, ptr %3, align 8, !tbaa !4
  store ptr %1, ptr %4, align 8, !tbaa !99
  %5 = load ptr, ptr %3, align 8, !tbaa !4
  %6 = call ptr @_Py_TYPE(ptr noundef %5)
  %7 = load ptr, ptr %4, align 8, !tbaa !99
  %8 = icmp eq ptr %6, %7
  %9 = zext i1 %8 to i32
  ret i32 %9
}

; Function Attrs: nounwind uwtable
define internal ptr @cell_richcompare(ptr noundef %0, ptr noundef %1, i32 noundef %2) #0 {
  %4 = alloca ptr, align 8
  %5 = alloca ptr, align 8
  %6 = alloca ptr, align 8
  %7 = alloca i32, align 4
  %8 = alloca ptr, align 8
  %9 = alloca ptr, align 8
  %10 = alloca ptr, align 8
  store ptr %0, ptr %5, align 8, !tbaa !4
  store ptr %1, ptr %6, align 8, !tbaa !4
  store i32 %2, ptr %7, align 4, !tbaa !107
  %11 = load ptr, ptr %5, align 8, !tbaa !4
  %12 = call i32 @Py_IS_TYPE(ptr noundef %11, ptr noundef @PyCell_Type)
  %13 = icmp ne i32 %12, 0
  br i1 %13, label %14, label %18

14:                                               ; preds = %3
  %15 = load ptr, ptr %6, align 8, !tbaa !4
  %16 = call i32 @Py_IS_TYPE(ptr noundef %15, ptr noundef @PyCell_Type)
  %17 = icmp ne i32 %16, 0
  br i1 %17, label %19, label %18

18:                                               ; preds = %14, %3
  store ptr @_Py_NotImplementedStruct, ptr %4, align 8
  br label %31

19:                                               ; preds = %14
  call void @llvm.lifetime.start.p0(i64 8, ptr %8) #6
  %20 = load ptr, ptr %5, align 8, !tbaa !4
  %21 = call ptr @PyCell_GetRef(ptr noundef %20)
  store ptr %21, ptr %8, align 8, !tbaa !4
  call void @llvm.lifetime.start.p0(i64 8, ptr %9) #6
  %22 = load ptr, ptr %6, align 8, !tbaa !4
  %23 = call ptr @PyCell_GetRef(ptr noundef %22)
  store ptr %23, ptr %9, align 8, !tbaa !4
  call void @llvm.lifetime.start.p0(i64 8, ptr %10) #6
  %24 = load ptr, ptr %8, align 8, !tbaa !4
  %25 = load ptr, ptr %9, align 8, !tbaa !4
  %26 = load i32, ptr %7, align 4, !tbaa !107
  %27 = call ptr @cell_compare_impl(ptr noundef %24, ptr noundef %25, i32 noundef %26)
  store ptr %27, ptr %10, align 8, !tbaa !4
  %28 = load ptr, ptr %8, align 8, !tbaa !4
  call void @Py_XDECREF(ptr noundef %28)
  %29 = load ptr, ptr %9, align 8, !tbaa !4
  call void @Py_XDECREF(ptr noundef %29)
  %30 = load ptr, ptr %10, align 8, !tbaa !4
  store ptr %30, ptr %4, align 8
  call void @llvm.lifetime.end.p0(i64 8, ptr %10) #6
  call void @llvm.lifetime.end.p0(i64 8, ptr %9) #6
  call void @llvm.lifetime.end.p0(i64 8, ptr %8) #6
  br label %31

31:                                               ; preds = %19, %18
  %32 = load ptr, ptr %4, align 8
  ret ptr %32
}