; Function Attrs: nounwind uwtable
define internal ptr @cell_richcompare(ptr noundef readonly captures(none) %0, ptr noundef readonly captures(none) %1, i32 noundef %2) #0 {
  %4 = getelementptr i8, ptr %0, i64 8
  %.val13 = load ptr, ptr %4, align 8, !tbaa !98
  %.not = icmp eq ptr %.val13, @PyCell_Type
  br i1 %.not, label %5, label %Py_XDECREF.exit19

5:                                                ; preds = %3
  %6 = getelementptr i8, ptr %1, i64 8
  %.val12 = load ptr, ptr %6, align 8, !tbaa !98
  %.not24 = icmp eq ptr %.val12, @PyCell_Type
  br i1 %.not24, label %7, label %Py_XDECREF.exit19

7:                                                ; preds = %5
  %8 = getelementptr i8, ptr %0, i64 16
  %.val11 = load ptr, ptr %8, align 8, !tbaa !7
  %.not.i.i.i = icmp eq ptr %.val11, null
  br i1 %.not.i.i.i, label %PyCell_GetRef.exit, label %9

9:                                                ; preds = %7
  %10 = load i32, ptr %.val11, align 8, !tbaa !4
  %11 = icmp slt i32 %10, 0
  br i1 %11, label %PyCell_GetRef.exit, label %12

12:                                               ; preds = %9
  %13 = add nuw i32 %10, 1
  store i32 %13, ptr %.val11, align 8, !tbaa !4
  br label %PyCell_GetRef.exit

PyCell_GetRef.exit:                               ; preds = %7, %9, %12
  %14 = getelementptr i8, ptr %1, i64 16
  %.val = load ptr, ptr %14, align 8, !tbaa !7
  %.not.i.i.i14 = icmp eq ptr %.val, null
  br i1 %.not.i.i.i14, label %PyCell_GetRef.exit15.thread, label %16

PyCell_GetRef.exit15.thread:                      ; preds = %PyCell_GetRef.exit
  %15 = icmp ne ptr %.val11, null
  br label %22

16:                                               ; preds = %PyCell_GetRef.exit
  %17 = load i32, ptr %.val, align 8, !tbaa !4
  %18 = icmp slt i32 %17, 0
  br i1 %18, label %PyCell_GetRef.exit15, label %19

19:                                               ; preds = %16
  %20 = add nuw i32 %17, 1
  store i32 %20, ptr %.val, align 8, !tbaa !4
  br label %PyCell_GetRef.exit15

PyCell_GetRef.exit15:                             ; preds = %16, %19
  br i1 %.not.i.i.i, label %22, label %cell_compare_impl.exit.thread

cell_compare_impl.exit.thread:                    ; preds = %PyCell_GetRef.exit15
  %21 = tail call ptr @PyObject_RichCompare(ptr noundef nonnull %.val11, ptr noundef nonnull %.val, i32 noundef %2) #4
  br label %35

22:                                               ; preds = %PyCell_GetRef.exit15.thread, %PyCell_GetRef.exit15
  %23 = phi i1 [ %15, %PyCell_GetRef.exit15.thread ], [ false, %PyCell_GetRef.exit15 ]
  %24 = xor i1 %.not.i.i.i14, true
  switch i32 %2, label %34 [
    i32 2, label %25
    i32 3, label %27
    i32 0, label %28
    i32 4, label %30
    i32 1, label %32
    i32 5, label %33
  ]

25:                                               ; preds = %22
  %26 = xor i1 %.not.i.i.i14, %23
  %_Py_TrueStruct._Py_FalseStruct.i = select i1 %26, ptr @_Py_TrueStruct, ptr @_Py_FalseStruct
  br label %cell_compare_impl.exit

27:                                               ; preds = %22
  %.not22.i = xor i1 %.not.i.i.i14, %23
  %_Py_FalseStruct._Py_TrueStruct.i = select i1 %.not22.i, ptr @_Py_FalseStruct, ptr @_Py_TrueStruct
  br label %cell_compare_impl.exit

28:                                               ; preds = %22
  %29 = and i1 %.not.i.i.i, %24
  %_Py_TrueStruct._Py_FalseStruct23.i = select i1 %29, ptr @_Py_TrueStruct, ptr @_Py_FalseStruct
  br label %cell_compare_impl.exit

30:                                               ; preds = %22
  %31 = and i1 %.not.i.i.i14, %23
  %_Py_TrueStruct._Py_FalseStruct24.i = select i1 %31, ptr @_Py_TrueStruct, ptr @_Py_FalseStruct
  br label %cell_compare_impl.exit

32:                                               ; preds = %22
  %.not21.i = and i1 %.not.i.i.i14, %23
  %_Py_FalseStruct._Py_TrueStruct25.i = select i1 %.not21.i, ptr @_Py_FalseStruct, ptr @_Py_TrueStruct
  br label %cell_compare_impl.exit

33:                                               ; preds = %22
  %.not.i = and i1 %.not.i.i.i, %24
  %_Py_FalseStruct._Py_TrueStruct26.i = select i1 %.not.i, ptr @_Py_FalseStruct, ptr @_Py_TrueStruct
  br label %cell_compare_impl.exit

34:                                               ; preds = %22
  unreachable

cell_compare_impl.exit:                           ; preds = %25, %27, %28, %30, %32, %33
  %.0.i = phi ptr [ %_Py_TrueStruct._Py_FalseStruct.i, %25 ], [ %_Py_FalseStruct._Py_TrueStruct.i, %27 ], [ %_Py_TrueStruct._Py_FalseStruct23.i, %28 ], [ %_Py_TrueStruct._Py_FalseStruct24.i, %30 ], [ %_Py_FalseStruct._Py_TrueStruct25.i, %32 ], [ %_Py_FalseStruct._Py_TrueStruct26.i, %33 ]
  br i1 %.not.i.i.i, label %Py_XDECREF.exit, label %35

35:                                               ; preds = %cell_compare_impl.exit.thread, %cell_compare_impl.exit
  %.0.i22 = phi ptr [ %21, %cell_compare_impl.exit.thread ], [ %.0.i, %cell_compare_impl.exit ]
  %36 = load i32, ptr %.val11, align 8, !tbaa !4
  %.not.i.i = icmp sgt i32 %36, -1
  br i1 %.not.i.i, label %37, label %Py_XDECREF.exit

37:                                               ; preds = %35
  %38 = add nsw i32 %36, -1
  store i32 %38, ptr %.val11, align 8, !tbaa !4
  %39 = icmp eq i32 %38, 0
  br i1 %39, label %40, label %Py_XDECREF.exit

40:                                               ; preds = %37
  tail call void @_Py_Dealloc(ptr noundef nonnull %.val11) #4
  br label %Py_XDECREF.exit

Py_XDECREF.exit:                                  ; preds = %cell_compare_impl.exit, %35, %37, %40
  %.0.i23 = phi ptr [ %.0.i, %cell_compare_impl.exit ], [ %.0.i22, %35 ], [ %.0.i22, %37 ], [ %.0.i22, %40 ]
  br i1 %.not.i.i.i14, label %Py_XDECREF.exit19, label %41

41:                                               ; preds = %Py_XDECREF.exit
  %42 = load i32, ptr %.val, align 8, !tbaa !4
  %.not.i.i18 = icmp sgt i32 %42, -1
  br i1 %.not.i.i18, label %43, label %Py_XDECREF.exit19

43:                                               ; preds = %41
  %44 = add nsw i32 %42, -1
  store i32 %44, ptr %.val, align 8, !tbaa !4
  %45 = icmp eq i32 %44, 0
  br i1 %45, label %46, label %Py_XDECREF.exit19

46:                                               ; preds = %43
  tail call void @_Py_Dealloc(ptr noundef nonnull %.val) #4
  br label %Py_XDECREF.exit19

Py_XDECREF.exit19:                                ; preds = %46, %43, %41, %Py_XDECREF.exit, %3, %5
  %.0 = phi ptr [ @_Py_NotImplementedStruct, %5 ], [ @_Py_NotImplementedStruct, %3 ], [ %.0.i23, %Py_XDECREF.exit ], [ %.0.i23, %41 ], [ %.0.i23, %43 ], [ %.0.i23, %46 ]
  ret ptr %.0
}